target datalayout = "e-m:e-p270:32:32-p271:32:32-p272:64:64-i64:64-i128:128-f80:128-n8:16:32:64-S128"
target triple = "x86_64-pc-linux-gnu"

%"class.nlsat::ineq_atom" = type { %"class.nlsat::atom", i32, [0 x ptr] }
%"class.nlsat::atom" = type { i32, i32, i32, i32 }
%"struct.nlsat::ineq_atom::khasher" = type { i8 }
%"struct.nlsat::ineq_atom::chasher" = type { i8 }

; Function Attrs: mustprogress uwtable
define hidden noundef i32 @_ZNK5nlsat9ineq_atom9hash_procclEPKS0_(ptr noundef nonnull align 1 dereferenceable(1) %0, ptr noundef %1) #6 align 2 {
  %3 = alloca ptr, align 8
  %4 = alloca ptr, align 8
  %5 = alloca %"struct.nlsat::ineq_atom::khasher", align 1
  %6 = alloca %"struct.nlsat::ineq_atom::chasher", align 1
  store ptr %0, ptr %3, align 8, !tbaa !38
  store ptr %1, ptr %4, align 8, !tbaa !16
  %7 = load ptr, ptr %4, align 8, !tbaa !16
  %8 = load ptr, ptr %4, align 8, !tbaa !16
  %9 = getelementptr inbounds nuw %"class.nlsat::ineq_atom", ptr %8, i32 0, i32 1
  %10 = load i32, ptr %9, align 8, !tbaa !25
  call void @llvm.lifetime.start.p0(i64 1, ptr %5) #3
  call void @llvm.lifetime.start.p0(i64 1, ptr %6) #3
  %11 = call noundef i32 @_Z18get_composite_hashIPKN5nlsat9ineq_atomENS1_7khasherENS1_7chasherEEjT_jRKT0_RKT1_(ptr noundef %7, i32 noundef %10, ptr noundef nonnull align 1 dereferenceable(1) %5, ptr noundef nonnull align 1 dereferenceable(1) %6)
  call void @llvm.lifetime.end.p0(i64 1, ptr %6) #3
  call void @llvm.lifetime.end.p0(i64 1, ptr %5) #3
  ret i32 %11
}