; Function Attrs: mustprogress uwtable
define hidden noundef i32 @_ZNK5nlsat9ineq_atom9hash_procclEPKS0_(ptr noundef nonnull readnone align 1 captures(none) dereferenceable(1) %0, ptr noundef %1) local_unnamed_addr #5 align 2 {
  %3 = alloca %"struct.nlsat::ineq_atom::khasher", align 1
  %4 = alloca %"struct.nlsat::ineq_atom::chasher", align 1
  %5 = getelementptr inbounds nuw i8, ptr %1, i64 16
  %6 = load i32, ptr %5, align 8, !tbaa !12
  call void @llvm.lifetime.start.p0(i64 1, ptr nonnull %3) #9
  call void @llvm.lifetime.start.p0(i64 1, ptr nonnull %4) #9
  %7 = call noundef i32 @_Z18get_composite_hashIPKN5nlsat9ineq_atomENS1_7khasherENS1_7chasherEEjT_jRKT0_RKT1_(ptr noundef %1, i32 noundef %6, ptr noundef nonnull align 1 dereferenceable(1) %3, ptr noundef nonnull align 1 dereferenceable(1) %4)
  call void @llvm.lifetime.end.p0(i64 1, ptr nonnull %4) #9
  call void @llvm.lifetime.end.p0(i64 1, ptr nonnull %3) #9
  ret i32 %7
}